; Function Attrs: nounwind uwtable
define i32 @Java_sun_nio_fs_UnixNativeDispatcher_flistxattr(ptr noundef %0, ptr nocapture noundef readnone %1, i32 noundef %2, i64 noundef %3, i32 noundef %4) local_unnamed_addr #0 {
  %6 = inttoptr i64 %3 to ptr
  %7 = sext i32 %4 to i64
  %8 = tail call i64 @flistxattr(i32 noundef %2, ptr noundef %6, i64 noundef %7) #11
  %9 = icmp eq i64 %8, -1
  br i1 %9, label %10, label %throwUnixException.exit

10:                                               ; preds = %5
  %11 = tail call ptr @__errno_location() #12
  %12 = load i32, ptr %11, align 4
  %13 = tail call ptr (ptr, ptr, ptr, ...) @JNU_NewObjectByName(ptr noundef %0, ptr noundef nonnull @.str.46, ptr noundef nonnull @.str.47, i32 noundef %12) #11
  %.not.i = icmp eq ptr %13, null
  br i1 %.not.i, label %throwUnixException.exit, label %14

14:                                               ; preds = %10
  %15 = load ptr, ptr %0, align 8
  %16 = getelementptr inbounds i8, ptr %15, i64 104
  %17 = load ptr, ptr %16, align 8
  %18 = tail call i32 %17(ptr noundef nonnull %0, ptr noundef nonnull %13) #11
  br label %throwUnixException.exit

throwUnixException.exit:                          ; preds = %14, %10, %5
  %19 = trunc i64 %8 to i32
  ret i32 %19
}